target datalayout = "e-m:e-p270:32:32-p271:32:32-p272:64:64-i64:64-i128:128-f80:128-n8:16:32:64-S128"
target triple = "x86_64-pc-linux-gnu"

%struct.block_tq2_0 = type { [64 x i8], i16 }

@ggml_table_f32_f16 = external global [65536 x float], align 16

; Function Attrs: inlinehint nounwind uwtable
define internal float @ggml_lookup_fp16_to_fp32(i16 noundef zeroext %0) #3 {
  %2 = alloca i16, align 2
  %3 = alloca i16, align 2
  store i16 %0, ptr %2, align 2, !tbaa !42
  call void @llvm.lifetime.start.p0(i64 2, ptr %3) #10
  call void @llvm.memcpy.p0.p0.i64(ptr align 2 %3, ptr align 2 %2, i64 2, i1 false)
  %4 = load i16, ptr %3, align 2, !tbaa !42
  %5 = zext i16 %4 to i64
  %6 = getelementptr inbounds nuw [65536 x float], ptr @ggml_table_f32_f16, i64 0, i64 %5
  %7 = load float, ptr %6, align 4, !tbaa !13
  call void @llvm.lifetime.end.p0(i64 2, ptr %3) #10
  ret float %7
}

; Function Attrs: nounwind uwtable
define void @dequantize_row_tq2_0(ptr noalias noundef %0, ptr noalias noundef %1, i64 noundef %2) #0 {
  %4 = alloca ptr, align 8
  %5 = alloca ptr, align 8
  %6 = alloca i64, align 8
  %7 = alloca i64, align 8
  %8 = alloca i64, align 8
  %9 = alloca i32, align 4
  %10 = alloca float, align 4
  %11 = alloca i64, align 8
  %12 = alloca i64, align 8
  %13 = alloca i64, align 8
  %14 = alloca i8, align 1
  store ptr %0, ptr %4, align 8, !tbaa !8
  store ptr %1, ptr %5, align 8, !tbaa !3
  store i64 %2, ptr %6, align 8, !tbaa !9
  call void @llvm.lifetime.start.p0(i64 8, ptr %7) #10
  %15 = load i64, ptr %6, align 8, !tbaa !9
  %16 = sdiv i64 %15, 256
  store i64 %16, ptr %7, align 8, !tbaa !9
  call void @llvm.lifetime.start.p0(i64 8, ptr %8) #10
  store i64 0, ptr %8, align 8, !tbaa !9
  br label %17

17:                                               ; preds = %80, %3
  %18 = load i64, ptr %8, align 8, !tbaa !9
  %19 = load i64, ptr %7, align 8, !tbaa !9
  %20 = icmp slt i64 %18, %19
  br i1 %20, label %22, label %21

21:                                               ; preds = %17
  store i32 2, ptr %9, align 4
  call void @llvm.lifetime.end.p0(i64 8, ptr %8) #10
  br label %83

22:                                               ; preds = %17
  call void @llvm.lifetime.start.p0(i64 4, ptr %10) #10
  %23 = load ptr, ptr %4, align 8, !tbaa !8
  %24 = load i64, ptr %8, align 8, !tbaa !9
  %25 = getelementptr inbounds %struct.block_tq2_0, ptr %23, i64 %24
  %26 = getelementptr inbounds nuw %struct.block_tq2_0, ptr %25, i32 0, i32 1
  %27 = load i16, ptr %26, align 2, !tbaa !235
  %28 = call float @ggml_lookup_fp16_to_fp32(i16 noundef zeroext %27)
  store float %28, ptr %10, align 4, !tbaa !13
  call void @llvm.lifetime.start.p0(i64 8, ptr %11) #10
  store i64 0, ptr %11, align 8, !tbaa !9
  br label %29

29:                                               ; preds = %76, %22
  %30 = load i64, ptr %11, align 8, !tbaa !9
  %31 = icmp ult i64 %30, 64
  br i1 %31, label %33, label %32

32:                                               ; preds = %29
  store i32 5, ptr %9, align 4
  call void @llvm.lifetime.end.p0(i64 8, ptr %11) #10
  br label %79

33:                                               ; preds = %29
  call void @llvm.lifetime.start.p0(i64 8, ptr %12) #10
  store i64 0, ptr %12, align 8, !tbaa !9
  br label %34

34:                                               ; preds = %72, %33
  %35 = load i64, ptr %12, align 8, !tbaa !9
  %36 = icmp ult i64 %35, 4
  br i1 %36, label %38, label %37

37:                                               ; preds = %34
  store i32 8, ptr %9, align 4
  call void @llvm.lifetime.end.p0(i64 8, ptr %12) #10
  br label %75

38:                                               ; preds = %34
  call void @llvm.lifetime.start.p0(i64 8, ptr %13) #10
  store i64 0, ptr %13, align 8, !tbaa !9
  br label %39

39:                                               ; preds = %68, %38
  %40 = load i64, ptr %13, align 8, !tbaa !9
  %41 = icmp ult i64 %40, 32
  br i1 %41, label %43, label %42

42:                                               ; preds = %39
  store i32 11, ptr %9, align 4
  call void @llvm.lifetime.end.p0(i64 8, ptr %13) #10
  br label %71

43:                                               ; preds = %39
  call void @llvm.lifetime.start.p0(i64 1, ptr %14) #10
  %44 = load ptr, ptr %4, align 8, !tbaa !8
  %45 = load i64, ptr %8, align 8, !tbaa !9
  %46 = getelementptr inbounds %struct.block_tq2_0, ptr %44, i64 %45
  %47 = getelementptr inbounds nuw %struct.block_tq2_0, ptr %46, i32 0, i32 0
  %48 = load i64, ptr %11, align 8, !tbaa !9
  %49 = load i64, ptr %13, align 8, !tbaa !9
  %50 = add i64 %48, %49
  %51 = getelementptr inbounds nuw [64 x i8], ptr %47, i64 0, i64 %50
  %52 = load i8, ptr %51, align 1, !tbaa !20
  %53 = zext i8 %52 to i32
  %54 = load i64, ptr %12, align 8, !tbaa !9
  %55 = mul i64 %54, 2
  %56 = trunc i64 %55 to i32
  %57 = ashr i32 %53, %56
  %58 = and i32 %57, 3
  %59 = trunc i32 %58 to i8
  store i8 %59, ptr %14, align 1, !tbaa !20
  %60 = load i8, ptr %14, align 1, !tbaa !20
  %61 = sext i8 %60 to i32
  %62 = sub nsw i32 %61, 1
  %63 = sitofp i32 %62 to float
  %64 = load float, ptr %10, align 4, !tbaa !13
  %65 = fmul float %63, %64
  %66 = load ptr, ptr %5, align 8, !tbaa !3
  %67 = getelementptr inbounds nuw float, ptr %66, i32 1
  store ptr %67, ptr %5, align 8, !tbaa !3
  store float %65, ptr %66, align 4, !tbaa !13
  call void @llvm.lifetime.end.p0(i64 1, ptr %14) #10
  br label %68

68:                                               ; preds = %43
  %69 = load i64, ptr %13, align 8, !tbaa !9
  %70 = add i64 %69, 1
  store i64 %70, ptr %13, align 8, !tbaa !9
  br label %39, !llvm.loop !250

71:                                               ; preds = %42
  br label %72

72:                                               ; preds = %71
  %73 = load i64, ptr %12, align 8, !tbaa !9
  %74 = add i64 %73, 1
  store i64 %74, ptr %12, align 8, !tbaa !9
  br label %34, !llvm.loop !251

75:                                               ; preds = %37
  br label %76

76:                                               ; preds = %75
  %77 = load i64, ptr %11, align 8, !tbaa !9
  %78 = add i64 %77, 32
  store i64 %78, ptr %11, align 8, !tbaa !9
  br label %29, !llvm.loop !252

79:                                               ; preds = %32
  call void @llvm.lifetime.end.p0(i64 4, ptr %10) #10
  br label %80

80:                                               ; preds = %79
  %81 = load i64, ptr %8, align 8, !tbaa !9
  %82 = add nsw i64 %81, 1
  store i64 %82, ptr %8, align 8, !tbaa !9
  br label %17, !llvm.loop !253

83:                                               ; preds = %21
  call void @llvm.lifetime.end.p0(i64 8, ptr %7) #10
  ret void
}