; Function Attrs: nofree norecurse nosync nounwind memory(read, argmem: readwrite, inaccessiblemem: none) uwtable
define void @dequantize_row_tq2_0(ptr noalias noundef readonly captures(none) %0, ptr noalias noundef writeonly captures(none) %1, i64 noundef %2) local_unnamed_addr #4 {
  %4 = sdiv i64 %2, 256
  %5 = icmp sgt i64 %2, 255
  br i1 %5, label %.lr.ph, label %._crit_edge

._crit_edge:                                      ; preds = %13, %3
  ret void

.lr.ph:                                           ; preds = %3, %13
  %.031 = phi ptr [ %29, %13 ], [ %1, %3 ]
  %.02230 = phi i64 [ %14, %13 ], [ 0, %3 ]
  %6 = getelementptr inbounds nuw %struct.block_tq2_0, ptr %0, i64 %.02230
  %7 = getelementptr inbounds nuw i8, ptr %6, i64 64
  %8 = load i16, ptr %7, align 2, !tbaa !603
  %9 = zext i16 %8 to i64
  %10 = getelementptr inbounds nuw [65536 x float], ptr @ggml_table_f32_f16, i64 0, i64 %9
  %11 = load float, ptr %10, align 4, !tbaa !8
  br label %.preheader23

.preheader23:                                     ; preds = %.lr.ph, %16
  %.129 = phi ptr [ %.031, %.lr.ph ], [ %29, %16 ]
  %12 = phi i1 [ true, %.lr.ph ], [ false, %16 ]
  %.02128 = phi i64 [ 0, %.lr.ph ], [ 32, %16 ]
  br label %.preheader

13:                                               ; preds = %16
  %14 = add nuw nsw i64 %.02230, 1
  %exitcond33.not = icmp eq i64 %14, %4
  br i1 %exitcond33.not, label %._crit_edge, label %.lr.ph, !llvm.loop !623

.preheader:                                       ; preds = %.preheader23, %17
  %.227 = phi ptr [ %.129, %.preheader23 ], [ %29, %17 ]
  %.02026 = phi i64 [ 0, %.preheader23 ], [ %18, %17 ]
  %.020.tr = trunc nuw i64 %.02026 to i32
  %15 = shl nuw nsw i32 %.020.tr, 1
  br label %19

16:                                               ; preds = %17
  br i1 %12, label %.preheader23, label %13, !llvm.loop !624

17:                                               ; preds = %19
  %18 = add nuw nsw i64 %.02026, 1
  %exitcond32.not = icmp eq i64 %18, 4
  br i1 %exitcond32.not, label %16, label %.preheader, !llvm.loop !625

19:                                               ; preds = %.preheader, %19
  %.325 = phi ptr [ %.227, %.preheader ], [ %29, %19 ]
  %.01924 = phi i64 [ 0, %.preheader ], [ %30, %19 ]
  %20 = or disjoint i64 %.01924, %.02128
  %21 = getelementptr inbounds nuw [64 x i8], ptr %6, i64 0, i64 %20
  %22 = load i8, ptr %21, align 1, !tbaa !13
  %23 = zext i8 %22 to i32
  %24 = lshr i32 %23, %15
  %25 = and i32 %24, 3
  %26 = add nsw i32 %25, -1
  %27 = sitofp i32 %26 to float
  %28 = fmul float %11, %27
  %29 = getelementptr inbounds nuw i8, ptr %.325, i64 4
  store float %28, ptr %.325, align 4, !tbaa !8
  %30 = add nuw nsw i64 %.01924, 1
  %exitcond.not = icmp eq i64 %30, 32
  br i1 %exitcond.not, label %17, label %19, !llvm.loop !626
}